target datalayout = "e-m:e-p270:32:32-p271:32:32-p272:64:64-i64:64-i128:128-f80:128-n8:16:32:64-S128"
target triple = "x86_64-pc-linux-gnu"

@proto_register_starteam.ett = internal global [5 x ptr] [ptr @ett_starteam, ptr @ett_starteam_mdh, ptr @ett_starteam_ph, ptr @ett_starteam_id, ptr @ett_starteam_data], align 16
@.str.49 = private unnamed_addr constant [9 x i8] c"StarTeam\00", align 1
@.str.50 = private unnamed_addr constant [9 x i8] c"starteam\00", align 1
@proto_starteam = internal global i32 0, align 4
@starteam_tcp_handle = internal global ptr null, align 8
@.str.51 = private unnamed_addr constant [10 x i8] c"desegment\00", align 1
@.str.52 = private unnamed_addr constant [60 x i8] c"Reassemble StarTeam messages spanning multiple TCP segments\00", align 1
@.str.53 = private unnamed_addr constant [209 x i8] c"Whether the StarTeam dissector should reassemble messages spanning multiple TCP segments. To use this option, you must also enable \22Allow subdissectors to reassemble TCP streams\22 in the TCP protocol settings.\00", align 1
@starteam_desegment = internal global i8 1, align 1

; Function Attrs: null_pointer_is_valid sspstrong uwtable
define hidden void @proto_register_starteam() #0 {
  %1 = alloca ptr, align 8
  call void @llvm.lifetime.start.p0(i64 8, ptr %1) #4
  %2 = call i32 @proto_register_protocol(ptr noundef @.str.49, ptr noundef @.str.49, ptr noundef @.str.50)
  store i32 %2, ptr @proto_starteam, align 4
  %3 = load i32, ptr @proto_starteam, align 4
  call void @proto_register_field_array(i32 noundef %3, ptr noundef @proto_register_starteam.hf, i32 noundef 17)
  call void @proto_register_subtree_array(ptr noundef @proto_register_starteam.ett, i32 noundef 5)
  %4 = load i32, ptr @proto_starteam, align 4
  %5 = call ptr @register_dissector(ptr noundef @.str.50, ptr noundef @dissect_starteam_tcp, i32 noundef %4)
  store ptr %5, ptr @starteam_tcp_handle, align 8
  %6 = load i32, ptr @proto_starteam, align 4
  %7 = call ptr @prefs_register_protocol(i32 noundef %6, ptr noundef null)
  store ptr %7, ptr %1, align 8
  %8 = load ptr, ptr %1, align 8
  call void @prefs_register_bool_preference(ptr noundef %8, ptr noundef @.str.51, ptr noundef @.str.52, ptr noundef @.str.53, ptr noundef @starteam_desegment)
  call void @register_init_routine(ptr noundef @starteam_init)
  call void @llvm.lifetime.end.p0(i64 8, ptr %1) #4
  ret void
}