; Function Attrs: null_pointer_is_valid sspstrong uwtable
define hidden void @proto_register_starteam() local_unnamed_addr #0 {
  %1 = tail call i32 @proto_register_protocol(ptr noundef nonnull @.str.49, ptr noundef nonnull @.str.49, ptr noundef nonnull @.str.50)
  store i32 %1, ptr @proto_starteam, align 4
  tail call void @proto_register_field_array(i32 noundef %1, ptr noundef nonnull @proto_register_starteam.hf, i32 noundef 17)
  tail call void @proto_register_subtree_array(ptr noundef nonnull @proto_register_starteam.ett, i32 noundef 5)
  %2 = load i32, ptr @proto_starteam, align 4
  %3 = tail call ptr @register_dissector(ptr noundef nonnull @.str.50, ptr noundef nonnull @dissect_starteam_tcp, i32 noundef %2)
  store ptr %3, ptr @starteam_tcp_handle, align 8
  %4 = load i32, ptr @proto_starteam, align 4
  %5 = tail call ptr @prefs_register_protocol(i32 noundef %4, ptr noundef null)
  tail call void @prefs_register_bool_preference(ptr noundef %5, ptr noundef nonnull @.str.51, ptr noundef nonnull @.str.52, ptr noundef nonnull @.str.53, ptr noundef nonnull @starteam_desegment)
  tail call void @register_init_routine(ptr noundef nonnull @starteam_init)
  ret void
}